target datalayout = "e-m:e-p270:32:32-p271:32:32-p272:64:64-i64:64-i128:128-f80:128-n8:16:32:64-S128"
target triple = "x86_64-pc-linux-gnu"

%struct.CType = type { i32, i32, i16, i16, %struct.GCRef }
%struct.GCRef = type { i64 }
%struct.CTState = type { ptr, i32, i32, ptr, ptr, ptr, %struct.CCallback, [128 x i16] }
%struct.CCallback = type { [8 x %union.FPRCBArg], [8 x i64], ptr, ptr, ptr, i32, i32, i32 }
%union.FPRCBArg = type { double }
%struct.GCstr = type { %struct.GCRef, i8, i8, i8, i8, i32, i32, i32 }
%struct.global_State = type { ptr, ptr, %struct.GCState, %struct.GCstr, i8, i8, i8, i8, %struct.StrInternState, i32, %struct.GCRef, %struct.SBuf, %union.TValue, %union.TValue, %struct.Node, %union.TValue, %struct.GCupval, i32, i32, ptr, ptr, ptr, i32, i32, %struct.GCRef, %struct.MRef, %struct.MRef, %struct.PRNGState, [39 x %struct.GCRef] }
%struct.GCState = type { i64, i64, i8, i8, i8, i8, i32, %struct.GCRef, %struct.MRef, %struct.GCRef, %struct.GCRef, %struct.GCRef, %struct.GCRef, i64, i64, i32, i32, %struct.MRef }
%struct.StrInternState = type { ptr, i32, i32, i32, i8, i8, i8, i8, i64 }
%struct.SBuf = type { ptr, ptr, ptr, %struct.MRef }
%struct.Node = type { %union.TValue, %union.TValue, %struct.MRef }
%union.TValue = type { i64 }
%struct.GCupval = type { %struct.GCRef, i8, i8, i8, i8, %union.anon, %struct.MRef, i32 }
%union.anon = type { %struct.anon.1 }
%struct.anon.1 = type { %struct.GCRef, %struct.GCRef }
%struct.MRef = type { i64 }
%struct.PRNGState = type { [4 x i64] }

; Function Attrs: alwaysinline nounwind uwtable
define internal void @setintV(ptr noundef %0, i32 noundef %1) #2 {
  %3 = alloca ptr, align 8
  %4 = alloca i32, align 4
  store ptr %0, ptr %3, align 8, !tbaa !43
  store i32 %1, ptr %4, align 4, !tbaa !11
  %5 = load i32, ptr %4, align 4, !tbaa !11
  %6 = sitofp i32 %5 to double
  %7 = load ptr, ptr %3, align 8, !tbaa !43
  store double %6, ptr %7, align 8, !tbaa !23
  ret void
}

; Function Attrs: nounwind uwtable
define hidden i32 @lj_cconv_tv_bf(ptr noundef %0, ptr noundef %1, ptr noundef %2, ptr noundef %3) #0 {
  %5 = alloca ptr, align 8
  %6 = alloca ptr, align 8
  %7 = alloca ptr, align 8
  %8 = alloca ptr, align 8
  %9 = alloca i32, align 4
  %10 = alloca i32, align 4
  %11 = alloca i32, align 4
  %12 = alloca i32, align 4
  %13 = alloca i32, align 4
  %14 = alloca i32, align 4
  store ptr %0, ptr %5, align 8, !tbaa !4
  store ptr %1, ptr %6, align 8, !tbaa !9
  store ptr %2, ptr %7, align 8, !tbaa !43
  store ptr %3, ptr %8, align 8, !tbaa !21
  call void @llvm.lifetime.start.p0(i64 4, ptr %9) #9
  %15 = load ptr, ptr %6, align 8, !tbaa !9
  %16 = getelementptr inbounds nuw %struct.CType, ptr %15, i32 0, i32 0
  %17 = load i32, ptr %16, align 8, !tbaa !13
  store i32 %17, ptr %9, align 4, !tbaa !11
  call void @llvm.lifetime.start.p0(i64 4, ptr %10) #9
  call void @llvm.lifetime.start.p0(i64 4, ptr %11) #9
  call void @llvm.lifetime.start.p0(i64 4, ptr %12) #9
  %18 = load i32, ptr %9, align 4, !tbaa !11
  %19 = lshr i32 %18, 16
  %20 = and i32 %19, 127
  switch i32 %20, label %32 [
    i32 4, label %21
    i32 2, label %24
    i32 1, label %28
  ]

21:                                               ; preds = %4
  %22 = load ptr, ptr %8, align 8, !tbaa !21
  %23 = load i32, ptr %22, align 4, !tbaa !11
  store i32 %23, ptr %12, align 4, !tbaa !11
  br label %33

24:                                               ; preds = %4
  %25 = load ptr, ptr %8, align 8, !tbaa !21
  %26 = load i16, ptr %25, align 2, !tbaa !30
  %27 = zext i16 %26 to i32
  store i32 %27, ptr %12, align 4, !tbaa !11
  br label %33

28:                                               ; preds = %4
  %29 = load ptr, ptr %8, align 8, !tbaa !21
  %30 = load i8, ptr %29, align 1, !tbaa !23
  %31 = zext i8 %30 to i32
  store i32 %31, ptr %12, align 4, !tbaa !11
  br label %33

32:                                               ; preds = %4
  store i32 0, ptr %12, align 4, !tbaa !11
  br label %33

33:                                               ; preds = %32, %28, %24, %21
  %34 = load i32, ptr %9, align 4, !tbaa !11
  %35 = lshr i32 %34, 0
  %36 = and i32 %35, 127
  store i32 %36, ptr %10, align 4, !tbaa !11
  %37 = load i32, ptr %9, align 4, !tbaa !11
  %38 = lshr i32 %37, 8
  %39 = and i32 %38, 127
  store i32 %39, ptr %11, align 4, !tbaa !11
  %40 = load i32, ptr %10, align 4, !tbaa !11
  %41 = load i32, ptr %11, align 4, !tbaa !11
  %42 = add i32 %40, %41
  %43 = load i32, ptr %9, align 4, !tbaa !11
  %44 = lshr i32 %43, 16
  %45 = and i32 %44, 127
  %46 = mul i32 8, %45
  %47 = icmp ugt i32 %42, %46
  br i1 %47, label %48, label %52

48:                                               ; preds = %33
  %49 = load ptr, ptr %5, align 8, !tbaa !4
  %50 = getelementptr inbounds nuw %struct.CTState, ptr %49, i32 0, i32 3
  %51 = load ptr, ptr %50, align 8, !tbaa !34
  call void @lj_err_caller(ptr noundef %51, i32 noundef 3700) #10
  unreachable

52:                                               ; preds = %33
  %53 = load i32, ptr %9, align 4, !tbaa !11
  %54 = and i32 %53, 134217728
  %55 = icmp ne i32 %54, 0
  br i1 %55, label %83, label %56

56:                                               ; preds = %52
  call void @llvm.lifetime.start.p0(i64 4, ptr %13) #9
  %57 = load i32, ptr %11, align 4, !tbaa !11
  %58 = sub i32 32, %57
  store i32 %58, ptr %13, align 4, !tbaa !11
  %59 = load i32, ptr %9, align 4, !tbaa !11
  %60 = and i32 %59, 8388608
  %61 = icmp ne i32 %60, 0
  br i1 %61, label %71, label %62

62:                                               ; preds = %56
  %63 = load ptr, ptr %7, align 8, !tbaa !43
  %64 = load i32, ptr %12, align 4, !tbaa !11
  %65 = load i32, ptr %13, align 4, !tbaa !11
  %66 = load i32, ptr %10, align 4, !tbaa !11
  %67 = sub i32 %65, %66
  %68 = shl i32 %64, %67
  %69 = load i32, ptr %13, align 4, !tbaa !11
  %70 = ashr i32 %68, %69
  call void @setintV(ptr noundef %63, i32 noundef %70)
  br label %82

71:                                               ; preds = %56
  %72 = load i32, ptr %12, align 4, !tbaa !11
  %73 = load i32, ptr %13, align 4, !tbaa !11
  %74 = load i32, ptr %10, align 4, !tbaa !11
  %75 = sub i32 %73, %74
  %76 = shl i32 %72, %75
  %77 = load i32, ptr %13, align 4, !tbaa !11
  %78 = lshr i32 %76, %77
  store i32 %78, ptr %12, align 4, !tbaa !11
  %79 = load i32, ptr %12, align 4, !tbaa !11
  %80 = uitofp i32 %79 to double
  %81 = load ptr, ptr %7, align 8, !tbaa !43
  store double %80, ptr %81, align 8, !tbaa !23
  br label %82

82:                                               ; preds = %71, %62
  call void @llvm.lifetime.end.p0(i64 4, ptr %13) #9
  br label %103

83:                                               ; preds = %52
  call void @llvm.lifetime.start.p0(i64 4, ptr %14) #9
  %84 = load i32, ptr %12, align 4, !tbaa !11
  %85 = load i32, ptr %10, align 4, !tbaa !11
  %86 = lshr i32 %84, %85
  %87 = and i32 %86, 1
  store i32 %87, ptr %14, align 4, !tbaa !11
  %88 = load i32, ptr %14, align 4, !tbaa !11
  %89 = add i32 %88, 1
  %90 = zext i32 %89 to i64
  %91 = shl i64 %90, 47
  %92 = xor i64 %91, -1
  %93 = load ptr, ptr %7, align 8, !tbaa !43
  store i64 %92, ptr %93, align 8, !tbaa !23
  %94 = load i32, ptr %14, align 4, !tbaa !11
  %95 = add i32 %94, 1
  %96 = zext i32 %95 to i64
  %97 = shl i64 %96, 47
  %98 = xor i64 %97, -1
  %99 = load ptr, ptr %5, align 8, !tbaa !4
  %100 = getelementptr inbounds nuw %struct.CTState, ptr %99, i32 0, i32 4
  %101 = load ptr, ptr %100, align 8, !tbaa !45
  %102 = getelementptr inbounds nuw %struct.global_State, ptr %101, i32 0, i32 13
  store i64 %98, ptr %102, align 8, !tbaa !23
  call void @llvm.lifetime.end.p0(i64 4, ptr %14) #9
  br label %103

103:                                              ; preds = %83, %82
  call void @llvm.lifetime.end.p0(i64 4, ptr %12) #9
  call void @llvm.lifetime.end.p0(i64 4, ptr %11) #9
  call void @llvm.lifetime.end.p0(i64 4, ptr %10) #9
  call void @llvm.lifetime.end.p0(i64 4, ptr %9) #9
  ret i32 0
}