; Function Attrs: nounwind uwtable
define hidden noundef i32 @lj_cconv_tv_bf(ptr noundef readonly captures(none) %0, ptr noundef readonly captures(none) %1, ptr noundef writeonly captures(none) %2, ptr noundef readonly captures(none) %3) local_unnamed_addr #2 {
  %5 = load i32, ptr %1, align 8, !tbaa !17
  %6 = lshr i32 %5, 16
  %7 = and i32 %6, 127
  switch i32 %7, label %16 [
    i32 4, label %8
    i32 2, label %10
    i32 1, label %13
  ]

8:                                                ; preds = %4
  %9 = load i32, ptr %3, align 4, !tbaa !24
  br label %16

10:                                               ; preds = %4
  %11 = load i16, ptr %3, align 2, !tbaa !31
  %12 = zext i16 %11 to i32
  br label %16

13:                                               ; preds = %4
  %14 = load i8, ptr %3, align 1, !tbaa !23
  %15 = zext i8 %14 to i32
  br label %16

16:                                               ; preds = %4, %13, %10, %8
  %.0 = phi i32 [ %15, %13 ], [ %12, %10 ], [ %9, %8 ], [ 0, %4 ]
  %17 = and i32 %5, 127
  %18 = lshr i32 %5, 8
  %19 = and i32 %18, 127
  %20 = add nuw nsw i32 %19, %17
  %21 = shl nuw nsw i32 %7, 3
  %22 = icmp samesign ugt i32 %20, %21
  br i1 %22, label %23, label %26

23:                                               ; preds = %16
  %24 = getelementptr inbounds nuw i8, ptr %0, i64 16
  %25 = load ptr, ptr %24, align 8, !tbaa !35
  tail call void @lj_err_caller(ptr noundef %25, i32 noundef 3700) #11
  unreachable

26:                                               ; preds = %16
  %27 = and i32 %5, 134217728
  %.not = icmp eq i32 %27, 0
  br i1 %.not, label %28, label %39

28:                                               ; preds = %26
  %29 = sub nsw i32 32, %19
  %30 = and i32 %5, 8388608
  %.not30 = icmp eq i32 %30, 0
  %31 = sub nsw i32 %29, %17
  %32 = shl i32 %.0, %31
  br i1 %.not30, label %33, label %36

33:                                               ; preds = %28
  %34 = ashr i32 %32, %29
  %35 = sitofp i32 %34 to double
  store double %35, ptr %2, align 8, !tbaa !23
  br label %49

36:                                               ; preds = %28
  %37 = lshr i32 %32, %29
  %38 = uitofp i32 %37 to double
  store double %38, ptr %2, align 8, !tbaa !23
  br label %49

39:                                               ; preds = %26
  %40 = lshr i32 %.0, %17
  %41 = and i32 %40, 1
  %42 = add nuw nsw i32 %41, 1
  %43 = zext nneg i32 %42 to i64
  %44 = shl nuw nsw i64 %43, 47
  %45 = xor i64 %44, -1
  store i64 %45, ptr %2, align 8, !tbaa !23
  %46 = getelementptr inbounds nuw i8, ptr %0, i64 24
  %47 = load ptr, ptr %46, align 8, !tbaa !38
  %48 = getelementptr inbounds nuw i8, ptr %47, i64 240
  store i64 %45, ptr %48, align 8, !tbaa !23
  br label %49

49:                                               ; preds = %33, %36, %39
  ret i32 0
}